(dp0
S'show_imports'
p1
I0
sS'prj_name'
p2
S'MySolarSystem'
p3
sS'docformat'
p4
S'epytext'
p5
sS'inheritance'
p6
S'grouped'
p7
sS'help'
p8
NsS'modules'
p9
(S'/home/leevi/projektit/MySolarSystem/cli/cli.py'
p10
S'/home/leevi/projektit/MySolarSystem/cli/cli_pygame.py'
p11
S'/home/leevi/projektit/MySolarSystem/controller.py'
p12
S'/home/leevi/projektit/MySolarSystem/gui/about.py'
p13
S'/home/leevi/projektit/MySolarSystem/gui/force.py'
p14
S'/home/leevi/projektit/MySolarSystem/gui/main.py'
p15
S'/home/leevi/projektit/MySolarSystem/gui/main_force.py'
p16
S'/home/leevi/projektit/MySolarSystem/gui/main_objectmanager.py'
p17
S'/home/leevi/projektit/MySolarSystem/gui/main_preferences.py'
p18
S'/home/leevi/projektit/MySolarSystem/gui/mainwindow.py'
p19
S'/home/leevi/projektit/MySolarSystem/gui/objectmanager.py'
p20
S'/home/leevi/projektit/MySolarSystem/gui/paint.py'
p21
S'/home/leevi/projektit/MySolarSystem/gui/preferences.py'
p22
S'/home/leevi/projektit/MySolarSystem/mysolarsystem.py'
p23
S'/home/leevi/projektit/MySolarSystem/uni_file/dom_load.py'
p24
S'/home/leevi/projektit/MySolarSystem/uni_file/dom_save.py'
p25
S'/home/leevi/projektit/MySolarSystem/units.py'
p26
S'/home/leevi/projektit/MySolarSystem/universe/force_vector.py'
p27
S'/home/leevi/projektit/MySolarSystem/universe/maths.py'
p28
S'/home/leevi/projektit/MySolarSystem/universe/uni_object.py'
p29
S'/home/leevi/projektit/MySolarSystem/universe/universe.py'
p30
tp31
sS'private'
p32
I1
sS'prj_url'
p33
S'https://github.com/mtpajula/MySolarSystem'
p34
sS'introspect_or_parse'
p35
S'both'
p36
sS'frames'
p37
I1
sS'css'
p38
S'default'
p39
sS'target'
p40
S'/home/leevi/projektit/epydoc'
p41
s.